target datalayout = "e-m:e-p270:32:32-p271:32:32-p272:64:64-i64:64-i128:128-f80:128-n8:16:32:64-S128"
target triple = "x86_64-pc-linux-gnu"

%struct.GetBitContext = type { ptr, ptr, i32, i32, i32 }
%struct.AVCodecContext = type { ptr, i32, i32, ptr, i32, i32, ptr, ptr, ptr, i64, i32, i32, ptr, i32, %struct.AVRational, %struct.AVRational, %struct.AVRational, i32, i32, i32, i32, i32, %struct.AVRational, i32, i32, i32, i32, i32, i32, i32, i32, i32, i32, i32, ptr, ptr, i32, float, float, float, float, float, float, float, float, float, i32, i32, i32, i32, i32, i32, i32, i32, i32, i32, i32, i32, ptr, ptr, ptr, i32, i32, i32, i32, i32, i32, i32, i32, i32, i32, %struct.AVChannelLayout, i32, i32, i32, i32, i32, i32, i32, i32, ptr, i32, i32, i32, float, float, i32, i32, i32, i32, i32, ptr, i64, i64, float, float, i32, i32, ptr, ptr, i32, i32, i32, i32, i32, ptr, ptr, ptr, ptr, i32, i32, [8 x i64], i32, i32, i32, i32, i32, i32, i32, ptr, ptr, i32, i32, i32, i32, i32, i32, i32, i32, i32, i32, ptr, ptr, i32, i32, ptr, ptr, ptr, ptr, i32, i32, i64, i32, i32, i64, ptr, i64, ptr, i32, ptr, i32 }
%struct.AVRational = type { i32, i32 }
%struct.AVChannelLayout = type { i32, i32, %union.anon.0, ptr }
%union.anon.0 = type { i64 }
%struct.SVQ3Context = type { ptr, %struct.H264DSPContext, %struct.H264PredContext, %struct.HpelDSPContext, %struct.TpelDSPContext, %struct.VideoDSPContext, ptr, ptr, ptr, %struct.GetBitContext, %struct.GetBitContext, ptr, i32, i32, i32, i32, i32, i32, i32, i32, i32, i32, i32, i32, i32, i32, i32, i32, i32, i32, i32, i32, i32, i32, i32, i32, i32, i32, i32, ptr, i32, i32, [40 x i8], ptr, i32, i32, ptr, [2 x [40 x [2 x i16]]], [2 x [40 x i8]], [1536 x i16], [3 x [32 x i16]], [120 x i8], [88 x [16 x i32]], [96 x i32], [3 x %struct.SVQ3Frame] }
%struct.H264DSPContext = type { [4 x ptr], [4 x ptr], ptr, ptr, ptr, ptr, ptr, ptr, ptr, ptr, ptr, ptr, ptr, ptr, ptr, ptr, ptr, ptr, ptr, ptr, ptr, ptr, ptr, ptr, ptr, ptr, ptr, ptr }
%struct.H264PredContext = type { [15 x ptr], [12 x ptr], [11 x ptr], [9 x ptr], [2 x ptr], [2 x ptr], [2 x ptr], [3 x ptr], [3 x ptr] }
%struct.HpelDSPContext = type { [4 x [4 x ptr]], [4 x [4 x ptr]], [4 x [4 x ptr]], [4 x ptr] }
%struct.TpelDSPContext = type { [11 x ptr], [11 x ptr] }
%struct.VideoDSPContext = type { ptr, ptr }
%struct.SVQ3Frame = type { ptr, [2 x ptr], [2 x ptr], ptr, ptr }
%struct.AVFrame = type { [8 x ptr], [8 x i32], ptr, i32, i32, i32, i32, i32, %struct.AVRational, i64, i64, %struct.AVRational, i32, ptr, i32, i32, [8 x ptr], ptr, i32, ptr, i32, i32, i32, i32, i32, i32, i32, i64, ptr, i32, ptr, ptr, i64, i64, i64, i64, ptr, %struct.AVChannelLayout, i64 }

; Function Attrs: nounwind uwtable
define internal void @free_picture(ptr noundef %0) #1 {
  %2 = alloca ptr, align 8
  %3 = alloca i32, align 4
  store ptr %0, ptr %2, align 8, !tbaa !90
  call void @llvm.lifetime.start.p0(i64 4, ptr %3) #11
  store i32 0, ptr %3, align 4, !tbaa !31
  br label %4

4:                                                ; preds = %13, %1
  %5 = load i32, ptr %3, align 4, !tbaa !31
  %6 = icmp slt i32 %5, 2
  br i1 %6, label %7, label %16

7:                                                ; preds = %4
  %8 = load ptr, ptr %2, align 8, !tbaa !90
  %9 = getelementptr inbounds nuw %struct.SVQ3Frame, ptr %8, i32 0, i32 1
  %10 = load i32, ptr %3, align 4, !tbaa !31
  %11 = sext i32 %10 to i64
  %12 = getelementptr inbounds [2 x ptr], ptr %9, i64 0, i64 %11
  call void @av_freep(ptr noundef %12)
  br label %13

13:                                               ; preds = %7
  %14 = load i32, ptr %3, align 4, !tbaa !31
  %15 = add nsw i32 %14, 1
  store i32 %15, ptr %3, align 4, !tbaa !31
  br label %4, !llvm.loop !165

16:                                               ; preds = %4
  %17 = load ptr, ptr %2, align 8, !tbaa !90
  %18 = getelementptr inbounds nuw %struct.SVQ3Frame, ptr %17, i32 0, i32 3
  call void @av_freep(ptr noundef %18)
  %19 = load ptr, ptr %2, align 8, !tbaa !90
  %20 = getelementptr inbounds nuw %struct.SVQ3Frame, ptr %19, i32 0, i32 0
  %21 = load ptr, ptr %20, align 8, !tbaa !43
  call void @av_frame_unref(ptr noundef %21)
  call void @llvm.lifetime.end.p0(i64 4, ptr %3) #11
  ret void
}

; Function Attrs: nounwind uwtable
define internal i32 @get_buffer(ptr noundef %0, ptr noundef %1) #1 {
  %3 = alloca i32, align 4
  %4 = alloca ptr, align 8
  %5 = alloca ptr, align 8
  %6 = alloca ptr, align 8
  %7 = alloca i32, align 4
  %8 = alloca i32, align 4
  %9 = alloca i32, align 4
  %10 = alloca i32, align 4
  %11 = alloca i32, align 4
  %12 = alloca i32, align 4
  store ptr %0, ptr %4, align 8, !tbaa !4
  store ptr %1, ptr %5, align 8, !tbaa !90
  call void @llvm.lifetime.start.p0(i64 8, ptr %6) #11
  %13 = load ptr, ptr %4, align 8, !tbaa !4
  %14 = getelementptr inbounds nuw %struct.AVCodecContext, ptr %13, i32 0, i32 6
  %15 = load ptr, ptr %14, align 8, !tbaa !9
  store ptr %15, ptr %6, align 8, !tbaa !29
  call void @llvm.lifetime.start.p0(i64 4, ptr %7) #11
  %16 = load ptr, ptr %6, align 8, !tbaa !29
  %17 = getelementptr inbounds nuw %struct.SVQ3Context, ptr %16, i32 0, i32 36
  %18 = load i32, ptr %17, align 16, !tbaa !68
  %19 = load ptr, ptr %6, align 8, !tbaa !29
  %20 = getelementptr inbounds nuw %struct.SVQ3Context, ptr %19, i32 0, i32 35
  %21 = load i32, ptr %20, align 4, !tbaa !67
  %22 = add nsw i32 %21, 1
  %23 = mul nsw i32 %18, %22
  %24 = add nsw i32 %23, 1
  store i32 %24, ptr %7, align 4, !tbaa !31
  call void @llvm.lifetime.start.p0(i64 4, ptr %8) #11
  %25 = load ptr, ptr %6, align 8, !tbaa !29
  %26 = getelementptr inbounds nuw %struct.SVQ3Context, ptr %25, i32 0, i32 34
  %27 = load i32, ptr %26, align 8, !tbaa !65
  %28 = mul nsw i32 %27, 4
  %29 = add nsw i32 %28, 1
  store i32 %29, ptr %8, align 4, !tbaa !31
  call void @llvm.lifetime.start.p0(i64 4, ptr %9) #11
  %30 = load i32, ptr %8, align 4, !tbaa !31
  %31 = load ptr, ptr %6, align 8, !tbaa !29
  %32 = getelementptr inbounds nuw %struct.SVQ3Context, ptr %31, i32 0, i32 35
  %33 = load i32, ptr %32, align 4, !tbaa !67
  %34 = mul nsw i32 %30, %33
  %35 = mul nsw i32 %34, 4
  store i32 %35, ptr %9, align 4, !tbaa !31
  call void @llvm.lifetime.start.p0(i64 4, ptr %10) #11
  %36 = load ptr, ptr %5, align 8, !tbaa !90
  %37 = getelementptr inbounds nuw %struct.SVQ3Frame, ptr %36, i32 0, i32 1
  %38 = getelementptr inbounds [2 x ptr], ptr %37, i64 0, i64 0
  %39 = load ptr, ptr %38, align 8, !tbaa !133
  %40 = icmp ne ptr %39, null
  br i1 %40, label %110, label %41

41:                                               ; preds = %2
  call void @llvm.lifetime.start.p0(i64 4, ptr %11) #11
  %42 = load i32, ptr %7, align 4, !tbaa !31
  %43 = load ptr, ptr %6, align 8, !tbaa !29
  %44 = getelementptr inbounds nuw %struct.SVQ3Context, ptr %43, i32 0, i32 36
  %45 = load i32, ptr %44, align 16, !tbaa !68
  %46 = add nsw i32 %42, %45
  %47 = sext i32 %46 to i64
  %48 = call noalias ptr @av_calloc(i64 noundef %47, i64 noundef 4)
  %49 = load ptr, ptr %5, align 8, !tbaa !90
  %50 = getelementptr inbounds nuw %struct.SVQ3Frame, ptr %49, i32 0, i32 3
  store ptr %48, ptr %50, align 8, !tbaa !134
  %51 = load ptr, ptr %5, align 8, !tbaa !90
  %52 = getelementptr inbounds nuw %struct.SVQ3Frame, ptr %51, i32 0, i32 3
  %53 = load ptr, ptr %52, align 8, !tbaa !134
  %54 = icmp ne ptr %53, null
  br i1 %54, label %56, label %55

55:                                               ; preds = %41
  store i32 -12, ptr %3, align 4
  store i32 1, ptr %12, align 4
  br label %107

56:                                               ; preds = %41
  %57 = load ptr, ptr %5, align 8, !tbaa !90
  %58 = getelementptr inbounds nuw %struct.SVQ3Frame, ptr %57, i32 0, i32 3
  %59 = load ptr, ptr %58, align 8, !tbaa !134
  %60 = load ptr, ptr %6, align 8, !tbaa !29
  %61 = getelementptr inbounds nuw %struct.SVQ3Context, ptr %60, i32 0, i32 36
  %62 = load i32, ptr %61, align 16, !tbaa !68
  %63 = mul nsw i32 2, %62
  %64 = sext i32 %63 to i64
  %65 = getelementptr inbounds i32, ptr %59, i64 %64
  %66 = getelementptr inbounds i32, ptr %65, i64 1
  %67 = load ptr, ptr %5, align 8, !tbaa !90
  %68 = getelementptr inbounds nuw %struct.SVQ3Frame, ptr %67, i32 0, i32 4
  store ptr %66, ptr %68, align 8, !tbaa !112
  store i32 0, ptr %11, align 4, !tbaa !31
  br label %69

69:                                               ; preds = %103, %56
  %70 = load i32, ptr %11, align 4, !tbaa !31
  %71 = icmp slt i32 %70, 2
  br i1 %71, label %72, label %106

72:                                               ; preds = %69
  %73 = load i32, ptr %9, align 4, !tbaa !31
  %74 = add nsw i32 %73, 4
  %75 = sext i32 %74 to i64
  %76 = call noalias ptr @av_calloc(i64 noundef %75, i64 noundef 4)
  %77 = load ptr, ptr %5, align 8, !tbaa !90
  %78 = getelementptr inbounds nuw %struct.SVQ3Frame, ptr %77, i32 0, i32 1
  %79 = load i32, ptr %11, align 4, !tbaa !31
  %80 = sext i32 %79 to i64
  %81 = getelementptr inbounds [2 x ptr], ptr %78, i64 0, i64 %80
  store ptr %76, ptr %81, align 8, !tbaa !133
  %82 = load ptr, ptr %5, align 8, !tbaa !90
  %83 = getelementptr inbounds nuw %struct.SVQ3Frame, ptr %82, i32 0, i32 1
  %84 = load i32, ptr %11, align 4, !tbaa !31
  %85 = sext i32 %84 to i64
  %86 = getelementptr inbounds [2 x ptr], ptr %83, i64 0, i64 %85
  %87 = load ptr, ptr %86, align 8, !tbaa !133
  %88 = icmp ne ptr %87, null
  br i1 %88, label %90, label %89

89:                                               ; preds = %72
  store i32 -12, ptr %10, align 4, !tbaa !31
  store i32 5, ptr %12, align 4
  br label %107

90:                                               ; preds = %72
  %91 = load ptr, ptr %5, align 8, !tbaa !90
  %92 = getelementptr inbounds nuw %struct.SVQ3Frame, ptr %91, i32 0, i32 1
  %93 = load i32, ptr %11, align 4, !tbaa !31
  %94 = sext i32 %93 to i64
  %95 = getelementptr inbounds [2 x ptr], ptr %92, i64 0, i64 %94
  %96 = load ptr, ptr %95, align 8, !tbaa !133
  %97 = getelementptr inbounds [2 x i16], ptr %96, i64 4
  %98 = load ptr, ptr %5, align 8, !tbaa !90
  %99 = getelementptr inbounds nuw %struct.SVQ3Frame, ptr %98, i32 0, i32 2
  %100 = load i32, ptr %11, align 4, !tbaa !31
  %101 = sext i32 %100 to i64
  %102 = getelementptr inbounds [2 x ptr], ptr %99, i64 0, i64 %101
  store ptr %97, ptr %102, align 8, !tbaa !133
  br label %103

103:                                              ; preds = %90
  %104 = load i32, ptr %11, align 4, !tbaa !31
  %105 = add nsw i32 %104, 1
  store i32 %105, ptr %11, align 4, !tbaa !31
  br label %69, !llvm.loop !135

106:                                              ; preds = %69
  store i32 0, ptr %12, align 4
  br label %107

107:                                              ; preds = %89, %106, %55
  call void @llvm.lifetime.end.p0(i64 4, ptr %11) #11
  %108 = load i32, ptr %12, align 4
  switch i32 %108, label %150 [
    i32 0, label %109
    i32 5, label %147
  ]

109:                                              ; preds = %107
  br label %110

110:                                              ; preds = %109, %2
  %111 = load ptr, ptr %4, align 8, !tbaa !4
  %112 = load ptr, ptr %5, align 8, !tbaa !90
  %113 = getelementptr inbounds nuw %struct.SVQ3Frame, ptr %112, i32 0, i32 0
  %114 = load ptr, ptr %113, align 8, !tbaa !43
  %115 = load ptr, ptr %6, align 8, !tbaa !29
  %116 = getelementptr inbounds nuw %struct.SVQ3Context, ptr %115, i32 0, i32 28
  %117 = load i32, ptr %116, align 16, !tbaa !89
  %118 = icmp ne i32 %117, 3
  %119 = select i1 %118, i32 1, i32 0
  %120 = call i32 @ff_get_buffer(ptr noundef %111, ptr noundef %114, i32 noundef %119)
  store i32 %120, ptr %10, align 4, !tbaa !31
  %121 = load i32, ptr %10, align 4, !tbaa !31
  %122 = icmp slt i32 %121, 0
  br i1 %122, label %123, label %124

123:                                              ; preds = %110
  br label %147

124:                                              ; preds = %110
  %125 = load ptr, ptr %6, align 8, !tbaa !29
  %126 = getelementptr inbounds nuw %struct.SVQ3Context, ptr %125, i32 0, i32 46
  %127 = load ptr, ptr %126, align 8, !tbaa !136
  %128 = icmp ne ptr %127, null
  br i1 %128, label %146, label %129

129:                                              ; preds = %124
  %130 = load ptr, ptr %5, align 8, !tbaa !90
  %131 = getelementptr inbounds nuw %struct.SVQ3Frame, ptr %130, i32 0, i32 0
  %132 = load ptr, ptr %131, align 8, !tbaa !43
  %133 = getelementptr inbounds nuw %struct.AVFrame, ptr %132, i32 0, i32 1
  %134 = getelementptr inbounds [8 x i32], ptr %133, i64 0, i64 0
  %135 = load i32, ptr %134, align 8, !tbaa !31
  %136 = sext i32 %135 to i64
  %137 = call noalias ptr @av_calloc(i64 noundef %136, i64 noundef 17)
  %138 = load ptr, ptr %6, align 8, !tbaa !29
  %139 = getelementptr inbounds nuw %struct.SVQ3Context, ptr %138, i32 0, i32 46
  store ptr %137, ptr %139, align 8, !tbaa !136
  %140 = load ptr, ptr %6, align 8, !tbaa !29
  %141 = getelementptr inbounds nuw %struct.SVQ3Context, ptr %140, i32 0, i32 46
  %142 = load ptr, ptr %141, align 8, !tbaa !136
  %143 = icmp ne ptr %142, null
  br i1 %143, label %145, label %144

144:                                              ; preds = %129
  store i32 -12, ptr %3, align 4
  store i32 1, ptr %12, align 4
  br label %150

145:                                              ; preds = %129
  br label %146

146:                                              ; preds = %145, %124
  store i32 0, ptr %3, align 4
  store i32 1, ptr %12, align 4
  br label %150

147:                                              ; preds = %107, %123
  %148 = load ptr, ptr %5, align 8, !tbaa !90
  call void @free_picture(ptr noundef %148)
  %149 = load i32, ptr %10, align 4, !tbaa !31
  store i32 %149, ptr %3, align 4
  store i32 1, ptr %12, align 4
  br label %150

150:                                              ; preds = %147, %146, %144, %107
  call void @llvm.lifetime.end.p0(i64 4, ptr %10) #11
  call void @llvm.lifetime.end.p0(i64 4, ptr %9) #11
  call void @llvm.lifetime.end.p0(i64 4, ptr %8) #11
  call void @llvm.lifetime.end.p0(i64 4, ptr %7) #11
  call void @llvm.lifetime.end.p0(i64 8, ptr %6) #11
  %151 = load i32, ptr %3, align 4
  ret i32 %151
}