; Function Attrs: nounwind uwtable
define internal fastcc range(i32 -2147483648, 1) i32 @get_buffer(ptr noundef %0, ptr noundef %1) unnamed_addr #1 {
  %3 = getelementptr inbounds nuw i8, ptr %0, i64 32
  %4 = load ptr, ptr %3, align 8, !tbaa !4
  %5 = getelementptr inbounds nuw i8, ptr %4, i64 1552
  %6 = getelementptr inbounds nuw i8, ptr %4, i64 1548
  %7 = load i32, ptr %6, align 4, !tbaa !68
  %8 = getelementptr inbounds nuw i8, ptr %4, i64 1544
  %9 = load i32, ptr %8, align 8, !tbaa !66
  %10 = shl nsw i32 %9, 2
  %11 = or disjoint i32 %10, 1
  %12 = shl i32 %7, 2
  %13 = mul i32 %12, %11
  %14 = getelementptr inbounds nuw i8, ptr %1, i64 8
  %15 = load ptr, ptr %14, align 8, !tbaa !114
  %.not = icmp eq ptr %15, null
  br i1 %.not, label %16, label %.thread49

16:                                               ; preds = %2
  %17 = load i32, ptr %5, align 16, !tbaa !69
  %18 = add nsw i32 %7, 1
  %19 = mul nsw i32 %17, %18
  %20 = add i32 %17, 1
  %21 = add i32 %20, %19
  %22 = sext i32 %21 to i64
  %23 = tail call noalias ptr @av_calloc(i64 noundef %22, i64 noundef 4) #12
  %24 = getelementptr inbounds nuw i8, ptr %1, i64 40
  store ptr %23, ptr %24, align 8, !tbaa !156
  %.not43 = icmp eq ptr %23, null
  br i1 %.not43, label %.thread, label %25

25:                                               ; preds = %16
  %26 = load i32, ptr %5, align 16, !tbaa !69
  %27 = shl nsw i32 %26, 1
  %28 = sext i32 %27 to i64
  %29 = getelementptr inbounds i32, ptr %23, i64 %28
  %30 = getelementptr inbounds nuw i8, ptr %29, i64 4
  %31 = getelementptr inbounds nuw i8, ptr %1, i64 48
  store ptr %30, ptr %31, align 8, !tbaa !112
  %32 = add nsw i32 %13, 4
  %33 = sext i32 %32 to i64
  %34 = getelementptr inbounds nuw i8, ptr %1, i64 24
  br label %35

35:                                               ; preds = %25, %39
  %36 = phi i1 [ true, %25 ], [ false, %39 ]
  %indvars.iv = phi i64 [ 0, %25 ], [ 1, %39 ]
  %37 = tail call noalias ptr @av_calloc(i64 noundef %33, i64 noundef 4) #12
  %38 = getelementptr inbounds nuw [2 x ptr], ptr %14, i64 0, i64 %indvars.iv
  store ptr %37, ptr %38, align 8, !tbaa !114
  %.not44 = icmp eq ptr %37, null
  br i1 %.not44, label %free_picture.exit.critedge, label %39

39:                                               ; preds = %35
  %40 = getelementptr inbounds nuw i8, ptr %37, i64 16
  %41 = getelementptr inbounds nuw [2 x ptr], ptr %34, i64 0, i64 %indvars.iv
  store ptr %40, ptr %41, align 8, !tbaa !114
  br i1 %36, label %35, label %.thread49, !llvm.loop !157

.thread49:                                        ; preds = %39, %2
  %42 = load ptr, ptr %1, align 8, !tbaa !39
  %43 = getelementptr inbounds nuw i8, ptr %4, i64 1520
  %44 = load i32, ptr %43, align 16, !tbaa !90
  %.not45 = icmp ne i32 %44, 3
  %45 = zext i1 %.not45 to i32
  %46 = tail call i32 @ff_get_buffer(ptr noundef %0, ptr noundef %42, i32 noundef %45) #12
  %47 = icmp slt i32 %46, 0
  br i1 %47, label %free_picture.exit.critedge, label %48

48:                                               ; preds = %.thread49
  %49 = getelementptr inbounds nuw i8, ptr %4, i64 1640
  %50 = load ptr, ptr %49, align 8, !tbaa !158
  %.not46 = icmp eq ptr %50, null
  br i1 %.not46, label %51, label %57

51:                                               ; preds = %48
  %52 = load ptr, ptr %1, align 8, !tbaa !39
  %53 = getelementptr inbounds nuw i8, ptr %52, i64 64
  %54 = load i32, ptr %53, align 8, !tbaa !76
  %55 = sext i32 %54 to i64
  %56 = tail call noalias ptr @av_calloc(i64 noundef %55, i64 noundef 17) #12
  store ptr %56, ptr %49, align 8, !tbaa !158
  %.not47 = icmp eq ptr %56, null
  br i1 %.not47, label %.thread, label %57

57:                                               ; preds = %51, %48
  br label %.thread

free_picture.exit.critedge:                       ; preds = %35, %.thread49
  %.1 = phi i32 [ %46, %.thread49 ], [ -12, %35 ]
  tail call void @av_freep(ptr noundef nonnull %14) #12
  %58 = getelementptr inbounds nuw i8, ptr %1, i64 16
  tail call void @av_freep(ptr noundef nonnull %58) #12
  %59 = getelementptr inbounds nuw i8, ptr %1, i64 40
  tail call void @av_freep(ptr noundef nonnull %59) #12
  %60 = load ptr, ptr %1, align 8, !tbaa !39
  tail call void @av_frame_unref(ptr noundef %60) #12
  br label %.thread

.thread:                                          ; preds = %16, %51, %free_picture.exit.critedge, %57
  %.139 = phi i32 [ %.1, %free_picture.exit.critedge ], [ 0, %57 ], [ -12, %51 ], [ -12, %16 ]
  ret i32 %.139
}